target datalayout = "e-m:e-p270:32:32-p271:32:32-p272:64:64-i64:64-i128:128-f80:128-n8:16:32:64-S128"
target triple = "x86_64-pc-linux-gnu"

%struct._GtkDarktableIcon = type { %struct._GtkEventBox, ptr, i32, ptr }
%struct._GtkEventBox = type { %struct._GtkBin, ptr }
%struct._GtkBin = type { %struct._GtkContainer, ptr }
%struct._GtkContainer = type { %struct._GtkWidget, ptr }
%struct._GtkWidget = type { %struct._GObject, ptr }
%struct._GObject = type { %struct._GTypeInstance, i32, ptr }
%struct._GTypeInstance = type { ptr }

@dtgtk_icon_get_type.static_g_define_type_id = internal global i64 0, align 8
@.str = private unnamed_addr constant [8 x i8] c"dt-icon\00", align 1

; Function Attrs: nounwind uwtable
define i64 @dtgtk_icon_get_type() #0 {
  %1 = alloca i32, align 4
  %2 = alloca i64, align 8
  %3 = alloca ptr, align 8
  %4 = alloca i64, align 8
  %5 = alloca i64, align 8
  call void @llvm.lifetime.start.p0(i64 8, ptr %2) #8
  call void @llvm.lifetime.start.p0(i64 8, ptr %3) #8
  store ptr @dtgtk_icon_get_type.static_g_define_type_id, ptr %3, align 8, !tbaa !6
  %6 = load ptr, ptr %3, align 8, !tbaa !6
  %7 = load atomic i64, ptr %6 seq_cst, align 8
  store i64 %7, ptr %2, align 8
  %8 = load i64, ptr %2, align 8, !tbaa !11
  store i64 %8, ptr %4, align 8, !tbaa !11
  call void @llvm.lifetime.end.p0(i64 8, ptr %3) #8
  call void @llvm.lifetime.end.p0(i64 8, ptr %2) #8
  %9 = load i64, ptr %4, align 8, !tbaa !11
  %10 = icmp ne i64 %9, 0
  br i1 %10, label %14, label %11

11:                                               ; preds = %0
  %12 = call i32 @g_once_init_enter(ptr noundef @dtgtk_icon_get_type.static_g_define_type_id)
  %13 = icmp ne i32 %12, 0
  br label %14

14:                                               ; preds = %11, %0
  %15 = phi i1 [ false, %0 ], [ %13, %11 ]
  %16 = zext i1 %15 to i32
  store i32 %16, ptr %1, align 4, !tbaa !13
  %17 = load i32, ptr %1, align 4, !tbaa !13
  %18 = icmp ne i32 %17, 0
  br i1 %18, label %19, label %22

19:                                               ; preds = %14
  call void @llvm.lifetime.start.p0(i64 8, ptr %5) #8
  %20 = call i64 @dtgtk_icon_get_type_once()
  store i64 %20, ptr %5, align 8, !tbaa !11
  %21 = load i64, ptr %5, align 8, !tbaa !11
  call void @g_once_init_leave(ptr noundef @dtgtk_icon_get_type.static_g_define_type_id, i64 noundef %21)
  call void @llvm.lifetime.end.p0(i64 8, ptr %5) #8
  br label %22

22:                                               ; preds = %19, %14
  %23 = load i64, ptr @dtgtk_icon_get_type.static_g_define_type_id, align 8, !tbaa !11
  ret i64 %23
}

; Function Attrs: nounwind uwtable
define ptr @dtgtk_icon_new(ptr noundef %0, i32 noundef %1, ptr noundef %2) #0 {
  %4 = alloca ptr, align 8
  %5 = alloca i32, align 4
  %6 = alloca ptr, align 8
  %7 = alloca ptr, align 8
  store ptr %0, ptr %4, align 8, !tbaa !15
  store i32 %1, ptr %5, align 4, !tbaa !13
  store ptr %2, ptr %6, align 8, !tbaa !15
  call void @llvm.lifetime.start.p0(i64 8, ptr %7) #8
  %8 = call i64 @dtgtk_icon_get_type()
  %9 = call ptr (i64, ptr, ...) @g_object_new(i64 noundef %8, ptr noundef null)
  store ptr %9, ptr %7, align 8, !tbaa !16
  %10 = load ptr, ptr %7, align 8, !tbaa !16
  %11 = call i64 @gtk_event_box_get_type() #9
  %12 = call ptr @g_type_check_instance_cast(ptr noundef %10, i64 noundef %11)
  call void @gtk_event_box_set_visible_window(ptr noundef %12, i32 noundef 0)
  %13 = load ptr, ptr %4, align 8, !tbaa !15
  %14 = load ptr, ptr %7, align 8, !tbaa !16
  %15 = getelementptr inbounds nuw %struct._GtkDarktableIcon, ptr %14, i32 0, i32 1
  store ptr %13, ptr %15, align 8, !tbaa !18
  %16 = load i32, ptr %5, align 4, !tbaa !13
  %17 = load ptr, ptr %7, align 8, !tbaa !16
  %18 = getelementptr inbounds nuw %struct._GtkDarktableIcon, ptr %17, i32 0, i32 2
  store i32 %16, ptr %18, align 8, !tbaa !32
  %19 = load ptr, ptr %6, align 8, !tbaa !15
  %20 = load ptr, ptr %7, align 8, !tbaa !16
  %21 = getelementptr inbounds nuw %struct._GtkDarktableIcon, ptr %20, i32 0, i32 3
  store ptr %19, ptr %21, align 8, !tbaa !33
  %22 = load ptr, ptr %7, align 8, !tbaa !16
  %23 = call i64 @gtk_widget_get_type() #9
  %24 = call ptr @g_type_check_instance_cast(ptr noundef %22, i64 noundef %23)
  call void @gtk_widget_set_name(ptr noundef %24, ptr noundef @.str)
  %25 = load ptr, ptr %7, align 8, !tbaa !16
  call void @llvm.lifetime.end.p0(i64 8, ptr %7) #8
  ret ptr %25
}